; Function Attrs: nounwind uwtable
define noalias noundef ptr @ARKodeSPRKTable_Copy(ptr noundef readonly captures(none) %0) local_unnamed_addr #5 {
  %2 = getelementptr inbounds nuw i8, ptr %0, i64 4
  %3 = load i32, ptr %2, align 4, !tbaa !11
  %calloc.i = tail call dereferenceable_or_null(24) ptr @calloc(i64 1, i64 24)
  %.not.i = icmp eq ptr %calloc.i, null
  br i1 %.not.i, label %ARKodeSPRKTable_Alloc.exit, label %4

4:                                                ; preds = %1
  %5 = sext i32 %3 to i64
  %6 = shl nsw i64 %5, 3
  %7 = tail call noalias ptr @malloc(i64 noundef %6) #13
  %8 = getelementptr inbounds nuw i8, ptr %calloc.i, i64 16
  store ptr %7, ptr %8, align 8, !tbaa !3
  %.not14.i = icmp eq ptr %7, null
  br i1 %.not14.i, label %ARKodeSPRKTable_Free.exit.i, label %9

ARKodeSPRKTable_Free.exit.i:                      ; preds = %4
  tail call void @free(ptr noundef nonnull %calloc.i) #14
  br label %ARKodeSPRKTable_Alloc.exit

9:                                                ; preds = %4
  %10 = tail call noalias ptr @malloc(i64 noundef %6) #13
  %11 = getelementptr inbounds nuw i8, ptr %calloc.i, i64 8
  store ptr %10, ptr %11, align 8, !tbaa !10
  %.not15.i = icmp eq ptr %10, null
  br i1 %.not15.i, label %ARKodeSPRKTable_Free.exit19.i, label %12

ARKodeSPRKTable_Free.exit19.i:                    ; preds = %9
  tail call void @free(ptr noundef nonnull %7) #14
  tail call void @free(ptr noundef nonnull %calloc.i) #14
  br label %ARKodeSPRKTable_Alloc.exit

12:                                               ; preds = %9
  %13 = getelementptr inbounds nuw i8, ptr %calloc.i, i64 4
  store i32 %3, ptr %13, align 4, !tbaa !11
  br label %ARKodeSPRKTable_Alloc.exit

ARKodeSPRKTable_Alloc.exit:                       ; preds = %1, %ARKodeSPRKTable_Free.exit.i, %ARKodeSPRKTable_Free.exit19.i, %12
  %.0.i = phi ptr [ %calloc.i, %12 ], [ null, %ARKodeSPRKTable_Free.exit19.i ], [ null, %ARKodeSPRKTable_Free.exit.i ], [ null, %1 ]
  %14 = load i32, ptr %0, align 8, !tbaa !12
  store i32 %14, ptr %.0.i, align 8, !tbaa !12
  %15 = getelementptr inbounds nuw i8, ptr %.0.i, i64 4
  %16 = load i32, ptr %15, align 4, !tbaa !11
  %17 = icmp sgt i32 %16, 0
  br i1 %17, label %.lr.ph, label %._crit_edge

.lr.ph:                                           ; preds = %ARKodeSPRKTable_Alloc.exit
  %18 = getelementptr inbounds nuw i8, ptr %0, i64 16
  %19 = load ptr, ptr %18, align 8, !tbaa !3
  %20 = getelementptr inbounds nuw i8, ptr %.0.i, i64 16
  %21 = load ptr, ptr %20, align 8, !tbaa !3
  %22 = getelementptr inbounds nuw i8, ptr %0, i64 8
  %23 = load ptr, ptr %22, align 8, !tbaa !10
  %24 = getelementptr inbounds nuw i8, ptr %.0.i, i64 8
  %25 = load ptr, ptr %24, align 8, !tbaa !10
  %wide.trip.count = zext nneg i32 %16 to i64
  br label %26

26:                                               ; preds = %.lr.ph, %26
  %indvars.iv = phi i64 [ 0, %.lr.ph ], [ %indvars.iv.next, %26 ]
  %27 = getelementptr inbounds nuw double, ptr %19, i64 %indvars.iv
  %28 = load double, ptr %27, align 8, !tbaa !13
  %29 = getelementptr inbounds nuw double, ptr %21, i64 %indvars.iv
  store double %28, ptr %29, align 8, !tbaa !13
  %30 = getelementptr inbounds nuw double, ptr %23, i64 %indvars.iv
  %31 = load double, ptr %30, align 8, !tbaa !13
  %32 = getelementptr inbounds nuw double, ptr %25, i64 %indvars.iv
  store double %31, ptr %32, align 8, !tbaa !13
  %indvars.iv.next = add nuw nsw i64 %indvars.iv, 1
  %exitcond.not = icmp eq i64 %indvars.iv.next, %wide.trip.count
  br i1 %exitcond.not, label %._crit_edge, label %26

._crit_edge:                                      ; preds = %26, %ARKodeSPRKTable_Alloc.exit
  ret ptr %.0.i
}